; Function Attrs: mustprogress uwtable
define void @_ZN3gmx16RestraintManager9addToSpecESt10shared_ptrINS_19IRestraintPotentialEERKNSt7__cxx1112basic_stringIcSt11char_traitsIcESaIcEEE(ptr noundef nonnull readonly align 8 captures(none) dereferenceable(16) %0, ptr noundef captures(none) %1, ptr noundef nonnull readnone align 8 captures(none) dereferenceable(32) %2) local_unnamed_addr #3 align 2 personality ptr @__gxx_personality_v0 {
  %4 = alloca %"class.std::shared_ptr", align 8
  %5 = load ptr, ptr %0, align 8, !tbaa !48
  %6 = load ptr, ptr %1, align 8, !tbaa !11
  store ptr %6, ptr %4, align 8, !tbaa !11
  %7 = getelementptr inbounds nuw i8, ptr %4, i64 8
  %8 = getelementptr inbounds nuw i8, ptr %1, i64 8
  %9 = load ptr, ptr %8, align 8, !tbaa !16
  store ptr null, ptr %8, align 8, !tbaa !16
  store ptr %9, ptr %7, align 8, !tbaa !16
  store ptr null, ptr %1, align 8, !tbaa !11
  %10 = getelementptr inbounds nuw i8, ptr %5, i64 8
  %11 = load ptr, ptr %10, align 8, !tbaa !4
  %12 = getelementptr inbounds nuw i8, ptr %5, i64 16
  %13 = load ptr, ptr %12, align 8, !tbaa !10
  %.not.i.i = icmp eq ptr %11, %13
  br i1 %.not.i.i, label %16, label %_ZN3gmx16RestraintManager4Impl3addESt10shared_ptrINS_19IRestraintPotentialEERKNSt7__cxx1112basic_stringIcSt11char_traitsIcESaIcEEE.exit.thread

_ZN3gmx16RestraintManager4Impl3addESt10shared_ptrINS_19IRestraintPotentialEERKNSt7__cxx1112basic_stringIcSt11char_traitsIcESaIcEEE.exit.thread: ; preds = %3
  store ptr %6, ptr %11, align 8, !tbaa !11
  %14 = getelementptr inbounds nuw i8, ptr %11, i64 8
  store ptr %9, ptr %14, align 8, !tbaa !16
  %15 = getelementptr inbounds nuw i8, ptr %11, i64 16
  store ptr %15, ptr %10, align 8, !tbaa !4
  br label %_ZNSt12__shared_ptrIN3gmx19IRestraintPotentialELN9__gnu_cxx12_Lock_policyE2EED2Ev.exit

16:                                               ; preds = %3
  invoke void @_ZNSt6vectorISt10shared_ptrIN3gmx19IRestraintPotentialEESaIS3_EE17_M_realloc_insertIJS3_EEEvN9__gnu_cxx17__normal_iteratorIPS3_S5_EEDpOT_(ptr noundef nonnull align 8 dereferenceable(24) %5, ptr %11, ptr noundef nonnull align 8 dereferenceable(16) %4)
          to label %_ZN3gmx16RestraintManager4Impl3addESt10shared_ptrINS_19IRestraintPotentialEERKNSt7__cxx1112basic_stringIcSt11char_traitsIcESaIcEEE.exit unwind label %38

_ZN3gmx16RestraintManager4Impl3addESt10shared_ptrINS_19IRestraintPotentialEERKNSt7__cxx1112basic_stringIcSt11char_traitsIcESaIcEEE.exit: ; preds = %16
  %.pre = load ptr, ptr %7, align 8, !tbaa !16
  %.not.i.i3 = icmp eq ptr %.pre, null
  br i1 %.not.i.i3, label %_ZNSt12__shared_ptrIN3gmx19IRestraintPotentialELN9__gnu_cxx12_Lock_policyE2EED2Ev.exit, label %17

17:                                               ; preds = %_ZN3gmx16RestraintManager4Impl3addESt10shared_ptrINS_19IRestraintPotentialEERKNSt7__cxx1112basic_stringIcSt11char_traitsIcESaIcEEE.exit
  %18 = getelementptr inbounds nuw i8, ptr %.pre, i64 8
  %19 = load atomic i64, ptr %18 acquire, align 8
  %20 = icmp eq i64 %19, 4294967297
  %21 = trunc i64 %19 to i32
  br i1 %20, label %22, label %30

22:                                               ; preds = %17
  store i32 0, ptr %18, align 8, !tbaa !30
  %23 = getelementptr inbounds nuw i8, ptr %.pre, i64 12
  store i32 0, ptr %23, align 4, !tbaa !33
  %24 = load ptr, ptr %.pre, align 8, !tbaa !34
  %25 = getelementptr inbounds nuw i8, ptr %24, i64 16
  %26 = load ptr, ptr %25, align 8
  call void %26(ptr noundef nonnull align 8 dereferenceable(16) %.pre) #21
  %27 = load ptr, ptr %.pre, align 8, !tbaa !34
  %28 = getelementptr inbounds nuw i8, ptr %27, i64 24
  %29 = load ptr, ptr %28, align 8
  call void %29(ptr noundef nonnull align 8 dereferenceable(16) %.pre) #21
  br label %_ZNSt12__shared_ptrIN3gmx19IRestraintPotentialELN9__gnu_cxx12_Lock_policyE2EED2Ev.exit

30:                                               ; preds = %17
  %31 = load i8, ptr @__libc_single_threaded, align 1, !tbaa !36
  %.not.i.i.i = icmp eq i8 %31, 0
  br i1 %.not.i.i.i, label %34, label %32

32:                                               ; preds = %30
  %33 = add nsw i32 %21, -1
  store i32 %33, ptr %18, align 4, !tbaa !37
  br label %_ZN9__gnu_cxx27__exchange_and_add_dispatchEPii.exit.i.i.i

34:                                               ; preds = %30
  %35 = atomicrmw volatile add ptr %18, i32 -1 acq_rel, align 4
  br label %_ZN9__gnu_cxx27__exchange_and_add_dispatchEPii.exit.i.i.i

_ZN9__gnu_cxx27__exchange_and_add_dispatchEPii.exit.i.i.i: ; preds = %34, %32
  %.0.i.i.i.i = phi i32 [ %21, %32 ], [ %35, %34 ]
  %36 = icmp eq i32 %.0.i.i.i.i, 1
  br i1 %36, label %37, label %_ZNSt12__shared_ptrIN3gmx19IRestraintPotentialELN9__gnu_cxx12_Lock_policyE2EED2Ev.exit, !prof !38

37:                                               ; preds = %_ZN9__gnu_cxx27__exchange_and_add_dispatchEPii.exit.i.i.i
  call void @_ZNSt16_Sp_counted_baseILN9__gnu_cxx12_Lock_policyE2EE24_M_release_last_use_coldEv(ptr noundef nonnull align 8 dereferenceable(16) %.pre) #21
  br label %_ZNSt12__shared_ptrIN3gmx19IRestraintPotentialELN9__gnu_cxx12_Lock_policyE2EED2Ev.exit

_ZNSt12__shared_ptrIN3gmx19IRestraintPotentialELN9__gnu_cxx12_Lock_policyE2EED2Ev.exit: ; preds = %_ZN3gmx16RestraintManager4Impl3addESt10shared_ptrINS_19IRestraintPotentialEERKNSt7__cxx1112basic_stringIcSt11char_traitsIcESaIcEEE.exit.thread, %_ZN3gmx16RestraintManager4Impl3addESt10shared_ptrINS_19IRestraintPotentialEERKNSt7__cxx1112basic_stringIcSt11char_traitsIcESaIcEEE.exit, %22, %_ZN9__gnu_cxx27__exchange_and_add_dispatchEPii.exit.i.i.i, %37
  ret void

38:                                               ; preds = %16
  %39 = landingpad { ptr, i32 }
          cleanup
  call void @_ZNSt12__shared_ptrIN3gmx19IRestraintPotentialELN9__gnu_cxx12_Lock_policyE2EED2Ev(ptr noundef nonnull align 8 dereferenceable(16) %4) #21
  resume { ptr, i32 } %39
}